target datalayout = "e-m:e-p270:32:32-p271:32:32-p272:64:64-i64:64-i128:128-f80:128-n8:16:32:64-S128"
target triple = "x86_64-pc-linux-gnu"

%struct.RClass_and_rb_classext_t = type { %struct.RClass, %struct.rb_classext_struct }
%struct.RClass = type { %struct.RBasic, i64, ptr }
%struct.RBasic = type { i64, i64 }
%struct.rb_classext_struct = type { ptr, ptr, ptr, ptr, ptr, i64, ptr, ptr, ptr, ptr, i64, i64, %union.anon, i64, i32, i8, i8, i64 }
%union.anon = type { %struct.anon }
%struct.anon = type { ptr }
%struct.gen_ivtbl = type { %union.anon.1 }
%union.anon.1 = type { %struct.anon.2 }
%struct.anon.2 = type { i32, [1 x i64] }
%struct.anon.3 = type { ptr }
%struct.RObject = type { %struct.RBasic, %union.anon.4 }
%union.anon.4 = type { %struct.anon.5 }
%struct.anon.5 = type { ptr }

; Function Attrs: inlinehint nounwind sspstrong willreturn memory(none) uwtable
define internal zeroext i1 @RB_IMMEDIATE_P(i64 noundef %0) #5 {
  %2 = alloca i64, align 8
  store i64 %0, ptr %2, align 8, !tbaa !14
  %3 = load i64, ptr %2, align 8, !tbaa !14
  %4 = and i64 %3, 7
  %5 = icmp ne i64 %4, 0
  ret i1 %5
}

; Function Attrs: inlinehint nounwind sspstrong uwtable
define internal ptr @ROBJECT_IV_HASH(i64 noundef %0) #6 {
  %2 = alloca i64, align 8
  store i64 %0, ptr %2, align 8, !tbaa !14
  %3 = load i64, ptr %2, align 8, !tbaa !14
  %4 = inttoptr i64 %3 to ptr
  %5 = getelementptr inbounds nuw %struct.RObject, ptr %4, i32 0, i32 1
  %6 = getelementptr inbounds nuw %struct.anon.5, ptr %5, i32 0, i32 0
  %7 = load ptr, ptr %6, align 8, !tbaa !36
  ret ptr %7
}

; Function Attrs: inlinehint nounwind sspstrong willreturn memory(read) uwtable
define internal i32 @RB_BUILTIN_TYPE(i64 noundef %0) #2 {
  %2 = alloca i64, align 8
  %3 = alloca i64, align 8
  store i64 %0, ptr %2, align 8, !tbaa !14
  call void @llvm.lifetime.start.p0(i64 8, ptr %3) #30
  %4 = load i64, ptr %2, align 8, !tbaa !14
  %5 = inttoptr i64 %4 to ptr
  %6 = getelementptr inbounds nuw %struct.RBasic, ptr %5, i32 0, i32 0
  %7 = load i64, ptr %6, align 8, !tbaa !102
  %8 = and i64 %7, 31
  store i64 %8, ptr %3, align 8, !tbaa !14
  %9 = load i64, ptr %3, align 8, !tbaa !14
  %10 = trunc i64 %9 to i32
  call void @llvm.lifetime.end.p0(i64 8, ptr %3) #30
  ret i32 %10
}

; Function Attrs: inlinehint nounwind sspstrong willreturn memory(none) uwtable
define internal zeroext i1 @RB_SPECIAL_CONST_P(i64 noundef %0) #5 {
  %2 = alloca i64, align 8
  store i64 %0, ptr %2, align 8, !tbaa !14
  %3 = load i64, ptr %2, align 8, !tbaa !14
  %4 = icmp eq i64 %3, 0
  br i1 %4, label %8, label %5

5:                                                ; preds = %1
  %6 = load i64, ptr %2, align 8, !tbaa !14
  %7 = call zeroext i1 @RB_IMMEDIATE_P(i64 noundef %6) #32
  br label %8

8:                                                ; preds = %5, %1
  %9 = phi i1 [ true, %1 ], [ %7, %5 ]
  ret i1 %9
}

; Function Attrs: nounwind sspstrong uwtable
define dso_local i64 @rb_ivar_defined(i64 noundef %0, i64 noundef %1) #0 {
  %3 = alloca i64, align 8
  %4 = alloca i64, align 8
  %5 = alloca i64, align 8
  %6 = alloca i32, align 4
  %7 = alloca i32, align 4
  %8 = alloca i64, align 8
  %9 = alloca ptr, align 8
  %10 = alloca ptr, align 8
  store i64 %0, ptr %4, align 8, !tbaa !14
  store i64 %1, ptr %5, align 8, !tbaa !14
  call void @llvm.lifetime.start.p0(i64 4, ptr %6) #30
  %11 = load i64, ptr %4, align 8, !tbaa !14
  %12 = call zeroext i1 @RB_SPECIAL_CONST_P(i64 noundef %11) #32
  br i1 %12, label %13, label %14

13:                                               ; preds = %2
  store i64 0, ptr %3, align 8
  store i32 1, ptr %7, align 4
  br label %56

14:                                               ; preds = %2
  %15 = load i64, ptr %4, align 8, !tbaa !14
  %16 = call zeroext i1 @rb_shape_obj_too_complex(i64 noundef %15)
  br i1 %16, label %17, label %50

17:                                               ; preds = %14
  call void @llvm.lifetime.start.p0(i64 8, ptr %8) #30
  call void @llvm.lifetime.start.p0(i64 8, ptr %9) #30
  store ptr null, ptr %9, align 8, !tbaa !12
  %18 = load i64, ptr %4, align 8, !tbaa !14
  %19 = call i32 @RB_BUILTIN_TYPE(i64 noundef %18) #29
  switch i32 %19, label %29 [
    i32 2, label %20
    i32 3, label %20
    i32 1, label %26
  ]

20:                                               ; preds = %17, %17
  %21 = load i64, ptr %4, align 8, !tbaa !14
  %22 = inttoptr i64 %21 to ptr
  %23 = getelementptr inbounds nuw %struct.RClass_and_rb_classext_t, ptr %22, i32 0, i32 1
  %24 = getelementptr inbounds nuw %struct.rb_classext_struct, ptr %23, i32 0, i32 0
  %25 = load ptr, ptr %24, align 8, !tbaa !101
  store ptr %25, ptr %9, align 8, !tbaa !12
  br label %39

26:                                               ; preds = %17
  %27 = load i64, ptr %4, align 8, !tbaa !14
  %28 = call ptr @ROBJECT_IV_HASH(i64 noundef %27)
  store ptr %28, ptr %9, align 8, !tbaa !12
  br label %39

29:                                               ; preds = %17
  call void @llvm.lifetime.start.p0(i64 8, ptr %10) #30
  %30 = load i64, ptr %4, align 8, !tbaa !14
  %31 = call i32 @rb_gen_ivtbl_get(i64 noundef %30, i64 noundef 0, ptr noundef %10)
  %32 = icmp ne i32 %31, 0
  br i1 %32, label %33, label %38

33:                                               ; preds = %29
  %34 = load ptr, ptr %10, align 8, !tbaa !96
  %35 = getelementptr inbounds nuw %struct.gen_ivtbl, ptr %34, i32 0, i32 0
  %36 = getelementptr inbounds nuw %struct.anon.3, ptr %35, i32 0, i32 0
  %37 = load ptr, ptr %36, align 8, !tbaa !36
  store ptr %37, ptr %9, align 8, !tbaa !12
  br label %38

38:                                               ; preds = %33, %29
  store i32 2, ptr %7, align 4
  call void @llvm.lifetime.end.p0(i64 8, ptr %10) #30
  br label %39

39:                                               ; preds = %38, %26, %20
  %40 = load ptr, ptr %9, align 8, !tbaa !12
  %41 = icmp ne ptr %40, null
  br i1 %41, label %42, label %47

42:                                               ; preds = %39
  %43 = load ptr, ptr %9, align 8, !tbaa !12
  %44 = load i64, ptr %5, align 8, !tbaa !14
  %45 = call i32 @rb_st_lookup(ptr noundef %43, i64 noundef %44, ptr noundef %8)
  %46 = icmp ne i32 %45, 0
  br i1 %46, label %48, label %47

47:                                               ; preds = %42, %39
  store i64 0, ptr %3, align 8
  store i32 1, ptr %7, align 4
  br label %49

48:                                               ; preds = %42
  store i64 20, ptr %3, align 8
  store i32 1, ptr %7, align 4
  br label %49

49:                                               ; preds = %48, %47
  call void @llvm.lifetime.end.p0(i64 8, ptr %9) #30
  call void @llvm.lifetime.end.p0(i64 8, ptr %8) #30
  br label %56

50:                                               ; preds = %14
  %51 = load i64, ptr %4, align 8, !tbaa !14
  %52 = call ptr @rb_shape_get_shape(i64 noundef %51)
  %53 = load i64, ptr %5, align 8, !tbaa !14
  %54 = call zeroext i1 @rb_shape_get_iv_index(ptr noundef %52, i64 noundef %53, ptr noundef %6)
  %55 = select i1 %54, i64 20, i64 0
  store i64 %55, ptr %3, align 8
  store i32 1, ptr %7, align 4
  br label %56

56:                                               ; preds = %50, %49, %13
  call void @llvm.lifetime.end.p0(i64 4, ptr %6) #30
  %57 = load i64, ptr %3, align 8
  ret i64 %57
}