; Function Attrs: nounwind sspstrong uwtable
define dso_local range(i64 0, 21) i64 @rb_ivar_defined(i64 noundef %0, i64 noundef %1) local_unnamed_addr #0 {
  %3 = alloca i32, align 4
  %4 = alloca i64, align 8
  %5 = alloca ptr, align 8
  call void @llvm.lifetime.start.p0(i64 4, ptr nonnull %3) #27
  %6 = icmp eq i64 %0, 0
  %7 = and i64 %0, 7
  %8 = icmp ne i64 %7, 0
  %9 = or i1 %6, %8
  br i1 %9, label %37, label %10

10:                                               ; preds = %2
  %11 = tail call zeroext i1 @rb_shape_obj_too_complex(i64 noundef %0) #27
  br i1 %11, label %12, label %33

12:                                               ; preds = %10
  call void @llvm.lifetime.start.p0(i64 8, ptr nonnull %4) #27
  %13 = inttoptr i64 %0 to ptr
  %14 = load i64, ptr %13, align 8, !tbaa !28
  %15 = trunc i64 %14 to i32
  %16 = and i32 %15, 31
  switch i32 %16, label %23 [
    i32 2, label %17
    i32 3, label %17
    i32 1, label %20
  ]

17:                                               ; preds = %12, %12
  %18 = getelementptr inbounds nuw i8, ptr %13, i64 32
  %19 = load ptr, ptr %18, align 8, !tbaa !97
  br label %29

20:                                               ; preds = %12
  %21 = getelementptr inbounds nuw i8, ptr %13, i64 16
  %22 = load ptr, ptr %21, align 8, !tbaa !32
  br label %29

23:                                               ; preds = %12
  call void @llvm.lifetime.start.p0(i64 8, ptr nonnull %5) #27
  %24 = call i32 @rb_gen_ivtbl_get(i64 noundef %0, i64 noundef 0, ptr noundef nonnull %5)
  %.not = icmp eq i32 %24, 0
  br i1 %.not, label %28, label %25

25:                                               ; preds = %23
  %26 = load ptr, ptr %5, align 8, !tbaa !94
  %27 = load ptr, ptr %26, align 8, !tbaa !32
  br label %28

28:                                               ; preds = %25, %23
  %.1 = phi ptr [ %27, %25 ], [ null, %23 ]
  call void @llvm.lifetime.end.p0(i64 8, ptr nonnull %5) #27
  br label %29

29:                                               ; preds = %28, %20, %17
  %.0 = phi ptr [ %.1, %28 ], [ %22, %20 ], [ %19, %17 ]
  %.not13 = icmp eq ptr %.0, null
  br i1 %.not13, label %32, label %30

30:                                               ; preds = %29
  %31 = call i32 @rb_st_lookup(ptr noundef nonnull %.0, i64 noundef %1, ptr noundef nonnull %4) #27
  %.not14 = icmp eq i32 %31, 0
  %spec.select = select i1 %.not14, i64 0, i64 20
  br label %32

32:                                               ; preds = %30, %29
  %.112 = phi i64 [ 0, %29 ], [ %spec.select, %30 ]
  call void @llvm.lifetime.end.p0(i64 8, ptr nonnull %4) #27
  br label %37

33:                                               ; preds = %10
  %34 = tail call ptr @rb_shape_get_shape(i64 noundef %0) #27
  %35 = call zeroext i1 @rb_shape_get_iv_index(ptr noundef %34, i64 noundef %1, ptr noundef nonnull %3) #27
  %36 = select i1 %35, i64 20, i64 0
  br label %37

37:                                               ; preds = %2, %33, %32
  %.011 = phi i64 [ %.112, %32 ], [ %36, %33 ], [ 0, %2 ]
  call void @llvm.lifetime.end.p0(i64 4, ptr nonnull %3) #27
  ret i64 %.011
}